target datalayout = "e-m:e-p270:32:32-p271:32:32-p272:64:64-i64:64-i128:128-f80:128-n8:16:32:64-S128"
target triple = "x86_64-pc-linux-gnu"

%"struct.ue2::Report" = type { i32, i8, i64, i64, i64, i32, i32, i8, i32, i32, i32, i64, i64 }

; Function Attrs: inlinehint mustprogress nounwind uwtable
define internal noundef zeroext i1 @_ZN3ue2L16isExternalReportERKNS_6ReportE(ptr noundef nonnull align 8 dereferenceable(72) %0) #7 {
  %2 = alloca i1, align 1
  %3 = alloca ptr, align 8
  store ptr %0, ptr %3, align 8
  %4 = load ptr, ptr %3, align 8
  %5 = getelementptr inbounds nuw %"struct.ue2::Report", ptr %4, i32 0, i32 0
  %6 = load i32, ptr %5, align 8
  switch i32 %6, label %9 [
    i32 2, label %7
    i32 3, label %7
    i32 4, label %7
    i32 5, label %7
    i32 6, label %7
    i32 7, label %7
    i32 8, label %7
    i32 9, label %7
    i32 10, label %7
    i32 14, label %7
    i32 15, label %7
    i32 16, label %7
    i32 0, label %8
    i32 1, label %8
    i32 11, label %8
    i32 12, label %8
    i32 13, label %8
    i32 17, label %8
  ]

7:                                                ; preds = %1, %1, %1, %1, %1, %1, %1, %1, %1, %1, %1, %1
  store i1 false, ptr %2, align 1
  br label %11

8:                                                ; preds = %1, %1, %1, %1, %1, %1
  store i1 true, ptr %2, align 1
  br label %11

9:                                                ; preds = %1
  br label %10

10:                                               ; preds = %9
  store i1 true, ptr %2, align 1
  br label %11

11:                                               ; preds = %10, %8, %7
  %12 = load i1, ptr %2, align 1
  ret i1 %12
}

; Function Attrs: mustprogress nounwind uwtable
define linkonce_odr hidden noundef zeroext i1 @_ZNK3ue26Report9hasBoundsEv(ptr noundef nonnull align 8 dereferenceable(72) %0) #1 comdat align 2 {
  %2 = alloca ptr, align 8
  store ptr %0, ptr %2, align 8
  %3 = load ptr, ptr %2, align 8
  %4 = getelementptr inbounds nuw %"struct.ue2::Report", ptr %3, i32 0, i32 2
  %5 = load i64, ptr %4, align 8
  %6 = icmp ugt i64 %5, 0
  br i1 %6, label %15, label %7

7:                                                ; preds = %1
  %8 = getelementptr inbounds nuw %"struct.ue2::Report", ptr %3, i32 0, i32 3
  %9 = load i64, ptr %8, align 8
  %10 = icmp ult i64 %9, -1
  br i1 %10, label %15, label %11

11:                                               ; preds = %7
  %12 = getelementptr inbounds nuw %"struct.ue2::Report", ptr %3, i32 0, i32 4
  %13 = load i64, ptr %12, align 8
  %14 = icmp ugt i64 %13, 0
  br label %15

15:                                               ; preds = %11, %7, %1
  %16 = phi i1 [ true, %7 ], [ true, %1 ], [ %14, %11 ]
  ret i1 %16
}

; Function Attrs: inlinehint mustprogress uwtable
define internal noundef zeroext i1 @_ZN3ue2L19isSimpleExhaustibleERKNS_6ReportE(ptr noundef nonnull align 8 dereferenceable(72) %0) #4 {
  %2 = alloca i1, align 1
  %3 = alloca ptr, align 8
  store ptr %0, ptr %3, align 8
  %4 = load ptr, ptr %3, align 8
  %5 = getelementptr inbounds nuw %"struct.ue2::Report", ptr %4, i32 0, i32 5
  %6 = load i32, ptr %5, align 8
  %7 = icmp eq i32 %6, -1
  br i1 %7, label %8, label %9

8:                                                ; preds = %1
  store i1 false, ptr %2, align 1
  br label %28

9:                                                ; preds = %1
  %10 = load ptr, ptr %3, align 8
  %11 = call noundef zeroext i1 @_ZNK3ue26Report9hasBoundsEv(ptr noundef nonnull align 8 dereferenceable(72) %10)
  br i1 %11, label %12, label %23

12:                                               ; preds = %9
  %13 = load ptr, ptr %3, align 8
  %14 = getelementptr inbounds nuw %"struct.ue2::Report", ptr %13, i32 0, i32 2
  %15 = load i64, ptr %14, align 8
  %16 = icmp ne i64 %15, 0
  br i1 %16, label %22, label %17

17:                                               ; preds = %12
  %18 = load ptr, ptr %3, align 8
  %19 = getelementptr inbounds nuw %"struct.ue2::Report", ptr %18, i32 0, i32 4
  %20 = load i64, ptr %19, align 8
  %21 = icmp ne i64 %20, 0
  br i1 %21, label %22, label %23

22:                                               ; preds = %17, %12
  store i1 false, ptr %2, align 1
  br label %28

23:                                               ; preds = %17, %9
  %24 = load ptr, ptr %3, align 8
  %25 = call noundef zeroext i1 @_ZN3ue2L16isExternalReportERKNS_6ReportE(ptr noundef nonnull align 8 dereferenceable(72) %24)
  br i1 %25, label %27, label %26

26:                                               ; preds = %23
  store i1 false, ptr %2, align 1
  br label %28

27:                                               ; preds = %23
  store i1 true, ptr %2, align 1
  br label %28

28:                                               ; preds = %27, %26, %22, %8
  %29 = load i1, ptr %2, align 1
  ret i1 %29
}