; Function Attrs: inlinehint mustprogress nofree norecurse nosync nounwind willreturn memory(argmem: read) uwtable
define internal fastcc noundef zeroext i1 @_ZN3ue2L19isSimpleExhaustibleERKNS_6ReportE(ptr noundef nonnull readonly align 8 captures(none) dereferenceable(72) %0) unnamed_addr #5 {
  %2 = getelementptr inbounds nuw i8, ptr %0, i64 32
  %3 = load i32, ptr %2, align 8
  %4 = icmp eq i32 %3, -1
  br i1 %4, label %_ZN3ue2L16isExternalReportERKNS_6ReportE.exit, label %5

5:                                                ; preds = %1
  %6 = getelementptr inbounds nuw i8, ptr %0, i64 8
  %7 = load i64, ptr %6, align 8
  %.not.i = icmp eq i64 %7, 0
  %8 = getelementptr inbounds nuw i8, ptr %0, i64 16
  %9 = load i64, ptr %8, align 8
  %.not1.i = icmp eq i64 %9, -1
  %or.cond.i.not = select i1 %.not.i, i1 %.not1.i, i1 false
  %10 = getelementptr inbounds nuw i8, ptr %0, i64 24
  %11 = load i64, ptr %10, align 8
  %12 = icmp eq i64 %11, 0
  %or.cond10.not12 = select i1 %or.cond.i.not, i1 %12, i1 false
  %.not6 = icmp eq i64 %11, 0
  %or.cond = select i1 %.not.i, i1 %.not6, i1 false
  %or.cond11 = select i1 %or.cond10.not12, i1 true, i1 %or.cond
  br i1 %or.cond11, label %13, label %_ZN3ue2L16isExternalReportERKNS_6ReportE.exit

13:                                               ; preds = %5
  %.val = load i32, ptr %0, align 8
  %14 = icmp ult i32 %.val, 18
  br i1 %14, label %switch.lookup, label %_ZN3ue2L16isExternalReportERKNS_6ReportE.exit

switch.lookup:                                    ; preds = %13
  %switch.cast = trunc nuw i32 %.val to i18
  %switch.downshift = lshr i18 -116733, %switch.cast
  %switch.masked = trunc i18 %switch.downshift to i1
  br label %_ZN3ue2L16isExternalReportERKNS_6ReportE.exit

_ZN3ue2L16isExternalReportERKNS_6ReportE.exit:    ; preds = %13, %switch.lookup, %5, %1
  %.0 = phi i1 [ false, %1 ], [ false, %5 ], [ %switch.masked, %switch.lookup ], [ true, %13 ]
  ret i1 %.0
}